target datalayout = "e-m:e-p270:32:32-p271:32:32-p272:64:64-i64:64-i128:128-f80:128-n8:16:32:64-S128"
target triple = "x86_64-pc-linux-gnu"

; Function Attrs: nounwind sspstrong uwtable
define hidden double @FLAC__lpc_compute_expected_bits_per_residual_sample_with_error_scale(double noundef %0, double noundef %1) #0 {
  %3 = alloca double, align 8
  %4 = alloca double, align 8
  %5 = alloca double, align 8
  %6 = alloca double, align 8
  %7 = alloca i32, align 4
  store double %0, ptr %4, align 8, !tbaa !27
  store double %1, ptr %5, align 8, !tbaa !27
  %8 = load double, ptr %4, align 8, !tbaa !27
  %9 = fcmp reassoc nsz arcp ogt double %8, 0.000000e+00
  br i1 %9, label %10, label %23

10:                                               ; preds = %2
  call void @llvm.lifetime.start.p0(i64 8, ptr %6) #5
  %11 = load double, ptr %5, align 8, !tbaa !27
  %12 = load double, ptr %4, align 8, !tbaa !27
  %13 = fmul reassoc nsz arcp double %11, %12
  %14 = call reassoc nsz arcp double @log(double noundef %13) #5, !tbaa !10
  %15 = fmul reassoc nsz arcp double 5.000000e-01, %14
  %16 = fdiv reassoc nsz arcp double %15, 0x3FE62E42FEFA39EF
  store double %16, ptr %6, align 8, !tbaa !27
  %17 = load double, ptr %6, align 8, !tbaa !27
  %18 = fcmp reassoc nsz arcp oge double %17, 0.000000e+00
  br i1 %18, label %19, label %21

19:                                               ; preds = %10
  %20 = load double, ptr %6, align 8, !tbaa !27
  store double %20, ptr %3, align 8
  store i32 1, ptr %7, align 4
  br label %22

21:                                               ; preds = %10
  store double 0.000000e+00, ptr %3, align 8
  store i32 1, ptr %7, align 4
  br label %22

22:                                               ; preds = %21, %19
  call void @llvm.lifetime.end.p0(i64 8, ptr %6) #5
  br label %28

23:                                               ; preds = %2
  %24 = load double, ptr %4, align 8, !tbaa !27
  %25 = fcmp reassoc nsz arcp olt double %24, 0.000000e+00
  br i1 %25, label %26, label %27

26:                                               ; preds = %23
  store double 1.000000e+32, ptr %3, align 8
  br label %28

27:                                               ; preds = %23
  store double 0.000000e+00, ptr %3, align 8
  br label %28

28:                                               ; preds = %27, %26, %22
  %29 = load double, ptr %3, align 8
  ret double %29
}

; Function Attrs: nounwind sspstrong uwtable
define hidden i32 @FLAC__lpc_compute_best_order(ptr noundef %0, i32 noundef %1, i32 noundef %2, i32 noundef %3) #0 {
  %5 = alloca ptr, align 8
  %6 = alloca i32, align 4
  %7 = alloca i32, align 4
  %8 = alloca i32, align 4
  %9 = alloca i32, align 4
  %10 = alloca i32, align 4
  %11 = alloca i32, align 4
  %12 = alloca double, align 8
  %13 = alloca double, align 8
  %14 = alloca double, align 8
  store ptr %0, ptr %5, align 8, !tbaa !25
  store i32 %1, ptr %6, align 4, !tbaa !10
  store i32 %2, ptr %7, align 4, !tbaa !10
  store i32 %3, ptr %8, align 4, !tbaa !10
  call void @llvm.lifetime.start.p0(i64 4, ptr %9) #5
  call void @llvm.lifetime.start.p0(i64 4, ptr %10) #5
  call void @llvm.lifetime.start.p0(i64 4, ptr %11) #5
  call void @llvm.lifetime.start.p0(i64 8, ptr %12) #5
  call void @llvm.lifetime.start.p0(i64 8, ptr %13) #5
  call void @llvm.lifetime.start.p0(i64 8, ptr %14) #5
  %15 = load i32, ptr %7, align 4, !tbaa !10
  %16 = uitofp i32 %15 to double
  %17 = fdiv reassoc nsz arcp double 5.000000e-01, %16
  store double %17, ptr %14, align 8, !tbaa !27
  store i32 0, ptr %11, align 4, !tbaa !10
  store double 0x41EFFFFFFFE00000, ptr %13, align 8, !tbaa !27
  store i32 0, ptr %10, align 4, !tbaa !10
  store i32 1, ptr %9, align 4, !tbaa !10
  br label %18

18:                                               ; preds = %46, %4
  %19 = load i32, ptr %10, align 4, !tbaa !10
  %20 = load i32, ptr %6, align 4, !tbaa !10
  %21 = icmp ult i32 %19, %20
  br i1 %21, label %22, label %51

22:                                               ; preds = %18
  %23 = load ptr, ptr %5, align 8, !tbaa !25
  %24 = load i32, ptr %10, align 4, !tbaa !10
  %25 = zext i32 %24 to i64
  %26 = getelementptr inbounds nuw double, ptr %23, i64 %25
  %27 = load double, ptr %26, align 8, !tbaa !27
  %28 = load double, ptr %14, align 8, !tbaa !27
  %29 = call reassoc nsz arcp double @FLAC__lpc_compute_expected_bits_per_residual_sample_with_error_scale(double noundef %27, double noundef %28)
  %30 = load i32, ptr %7, align 4, !tbaa !10
  %31 = load i32, ptr %9, align 4, !tbaa !10
  %32 = sub i32 %30, %31
  %33 = uitofp i32 %32 to double
  %34 = load i32, ptr %9, align 4, !tbaa !10
  %35 = load i32, ptr %8, align 4, !tbaa !10
  %36 = mul i32 %34, %35
  %37 = uitofp i32 %36 to double
  %38 = call reassoc nsz arcp double @llvm.fmuladd.f64(double %29, double %33, double %37)
  store double %38, ptr %12, align 8, !tbaa !27
  %39 = load double, ptr %12, align 8, !tbaa !27
  %40 = load double, ptr %13, align 8, !tbaa !27
  %41 = fcmp reassoc nsz arcp olt double %39, %40
  br i1 %41, label %42, label %45

42:                                               ; preds = %22
  %43 = load i32, ptr %10, align 4, !tbaa !10
  store i32 %43, ptr %11, align 4, !tbaa !10
  %44 = load double, ptr %12, align 8, !tbaa !27
  store double %44, ptr %13, align 8, !tbaa !27
  br label %45

45:                                               ; preds = %42, %22
  br label %46

46:                                               ; preds = %45
  %47 = load i32, ptr %10, align 4, !tbaa !10
  %48 = add i32 %47, 1
  store i32 %48, ptr %10, align 4, !tbaa !10
  %49 = load i32, ptr %9, align 4, !tbaa !10
  %50 = add i32 %49, 1
  store i32 %50, ptr %9, align 4, !tbaa !10
  br label %18, !llvm.loop !112

51:                                               ; preds = %18
  %52 = load i32, ptr %11, align 4, !tbaa !10
  %53 = add i32 %52, 1
  call void @llvm.lifetime.end.p0(i64 8, ptr %14) #5
  call void @llvm.lifetime.end.p0(i64 8, ptr %13) #5
  call void @llvm.lifetime.end.p0(i64 8, ptr %12) #5
  call void @llvm.lifetime.end.p0(i64 4, ptr %11) #5
  call void @llvm.lifetime.end.p0(i64 4, ptr %10) #5
  call void @llvm.lifetime.end.p0(i64 4, ptr %9) #5
  ret i32 %53
}