; Function Attrs: nofree nounwind sspstrong memory(write, argmem: readwrite) uwtable
define hidden i32 @FLAC__lpc_compute_best_order(ptr noundef readonly captures(none) %0, i32 noundef %1, i32 noundef %2, i32 noundef %3) local_unnamed_addr #10 {
  %.not = icmp eq i32 %1, 0
  br i1 %.not, label %._crit_edge, label %.lr.ph

.lr.ph:                                           ; preds = %4
  %5 = uitofp i32 %2 to double
  %wide.trip.count = zext i32 %1 to i64
  %6 = fdiv reassoc nsz arcp double 1.000000e+00, %5
  br label %7

7:                                                ; preds = %.lr.ph, %FLAC__lpc_compute_expected_bits_per_residual_sample_with_error_scale.exit
  %indvars.iv = phi i64 [ 0, %.lr.ph ], [ %indvars.iv.next, %FLAC__lpc_compute_expected_bits_per_residual_sample_with_error_scale.exit ]
  %.024 = phi i32 [ 1, %.lr.ph ], [ %25, %FLAC__lpc_compute_expected_bits_per_residual_sample_with_error_scale.exit ]
  %.01623 = phi double [ 0x41EFFFFFFFE00000, %.lr.ph ], [ %.1, %FLAC__lpc_compute_expected_bits_per_residual_sample_with_error_scale.exit ]
  %.01821 = phi i32 [ 0, %.lr.ph ], [ %.119, %FLAC__lpc_compute_expected_bits_per_residual_sample_with_error_scale.exit ]
  %8 = getelementptr inbounds nuw double, ptr %0, i64 %indvars.iv
  %9 = load double, ptr %8, align 8, !tbaa !18
  %10 = fcmp reassoc nsz arcp ogt double %9, 0.000000e+00
  br i1 %10, label %11, label %16

11:                                               ; preds = %7
  %12 = fmul reassoc nsz arcp double %9, 5.000000e-01
  %13 = fmul reassoc nsz arcp double %12, %6
  %14 = tail call reassoc nsz arcp double @log(double noundef %13) #13, !tbaa !3
  %15 = fmul reassoc nsz arcp double %14, 0x3FE71547652B82FE
  %.inv.i = fcmp reassoc nsz arcp oge double %15, 0.000000e+00
  %..i = select reassoc nsz arcp i1 %.inv.i, double %15, double 0.000000e+00
  br label %FLAC__lpc_compute_expected_bits_per_residual_sample_with_error_scale.exit

16:                                               ; preds = %7
  %17 = fcmp reassoc nsz arcp olt double %9, 0.000000e+00
  %.10.i = select nsz i1 %17, double 1.000000e+32, double 0.000000e+00
  br label %FLAC__lpc_compute_expected_bits_per_residual_sample_with_error_scale.exit

FLAC__lpc_compute_expected_bits_per_residual_sample_with_error_scale.exit: ; preds = %11, %16
  %.1.i = phi nsz double [ %..i, %11 ], [ %.10.i, %16 ]
  %18 = sub i32 %2, %.024
  %19 = uitofp i32 %18 to double
  %20 = mul i32 %.024, %3
  %21 = uitofp i32 %20 to double
  %22 = tail call reassoc nsz arcp double @llvm.fmuladd.f64(double %.1.i, double %19, double %21)
  %23 = fcmp reassoc nsz arcp olt double %22, %.01623
  %24 = trunc nuw i64 %indvars.iv to i32
  %.119 = select i1 %23, i32 %24, i32 %.01821
  %.1 = select nsz i1 %23, double %22, double %.01623
  %indvars.iv.next = add nuw nsw i64 %indvars.iv, 1
  %25 = add i32 %.024, 1
  %exitcond.not = icmp eq i64 %indvars.iv.next, %wide.trip.count
  br i1 %exitcond.not, label %._crit_edge.loopexit, label %7, !llvm.loop !105

._crit_edge.loopexit:                             ; preds = %FLAC__lpc_compute_expected_bits_per_residual_sample_with_error_scale.exit
  %26 = add i32 %.119, 1
  br label %._crit_edge

._crit_edge:                                      ; preds = %._crit_edge.loopexit, %4
  %.018.lcssa = phi i32 [ 1, %4 ], [ %26, %._crit_edge.loopexit ]
  ret i32 %.018.lcssa
}